; Function Attrs: nounwind uwtable
define void @Acb_NtkCollectNewTfi2_rec(ptr noundef readonly captures(none) %0, i32 noundef %1, ptr noundef captures(none) %2) local_unnamed_addr #0 {
  %4 = getelementptr i8, ptr %0, i64 96
  %.val24 = load i32, ptr %4, align 8, !tbaa !73
  %5 = getelementptr i8, ptr %0, i64 264
  %.val25 = load ptr, ptr %5, align 8, !tbaa !18
  %6 = sext i32 %1 to i64
  %7 = getelementptr inbounds i32, ptr %.val25, i64 %6
  %8 = load i32, ptr %7, align 4, !tbaa !19
  %.not = icmp eq i32 %8, %.val24
  store i32 %.val24, ptr %7, align 4, !tbaa !19
  br i1 %.not, label %60, label %9

9:                                                ; preds = %3
  %10 = add nsw i32 %.val24, -1
  %.not26 = icmp eq i32 %8, %10
  br i1 %.not26, label %11, label %.critedge

11:                                               ; preds = %9
  %12 = getelementptr i8, ptr %0, i64 120
  %.val21 = load ptr, ptr %12, align 8, !tbaa !13
  %13 = getelementptr inbounds i8, ptr %.val21, i64 %6
  %14 = load i8, ptr %13, align 1, !tbaa !14
  %.not27 = icmp eq i8 %14, 3
  br i1 %.not27, label %.critedge, label %15

15:                                               ; preds = %11
  %16 = getelementptr i8, ptr %0, i64 136
  %.val = load ptr, ptr %16, align 8, !tbaa !18
  %17 = getelementptr i8, ptr %0, i64 152
  %.val20 = load ptr, ptr %17, align 8, !tbaa !18
  %18 = getelementptr inbounds i32, ptr %.val, i64 %6
  %19 = load i32, ptr %18, align 4, !tbaa !19
  %20 = sext i32 %19 to i64
  %21 = getelementptr inbounds i32, ptr %.val20, i64 %20
  %22 = load i32, ptr %21, align 4, !tbaa !19
  %23 = icmp sgt i32 %22, 0
  br i1 %23, label %.lr.ph, label %.critedge

.lr.ph:                                           ; preds = %15, %.lr.ph
  %indvars.iv = phi i64 [ %indvars.iv.next, %.lr.ph ], [ 0, %15 ]
  %indvars.iv.next = add nuw nsw i64 %indvars.iv, 1
  %24 = getelementptr inbounds nuw i32, ptr %21, i64 %indvars.iv.next
  %25 = load i32, ptr %24, align 4, !tbaa !19
  tail call void @Acb_NtkCollectNewTfi2_rec(ptr noundef %0, i32 noundef %25, ptr noundef %2)
  %26 = load i32, ptr %21, align 4, !tbaa !19
  %27 = sext i32 %26 to i64
  %28 = icmp slt i64 %indvars.iv.next, %27
  br i1 %28, label %.lr.ph, label %.critedge, !llvm.loop !93

.critedge:                                        ; preds = %.lr.ph, %15, %11, %9
  %29 = getelementptr inbounds nuw i8, ptr %2, i64 4
  %30 = load i32, ptr %29, align 4, !tbaa !15
  %31 = load i32, ptr %2, align 8, !tbaa !31
  %32 = icmp eq i32 %30, %31
  br i1 %32, label %33, label %.Vec_IntGrow.exit10_crit_edge.i

.Vec_IntGrow.exit10_crit_edge.i:                  ; preds = %.critedge
  %.phi.trans.insert.i = getelementptr inbounds nuw i8, ptr %2, i64 8
  %.pre.i = load ptr, ptr %.phi.trans.insert.i, align 8, !tbaa !18
  br label %Vec_IntPush.exit

33:                                               ; preds = %.critedge
  %34 = icmp slt i32 %30, 16
  br i1 %34, label %35, label %43

35:                                               ; preds = %33
  %36 = getelementptr inbounds nuw i8, ptr %2, i64 8
  %37 = load ptr, ptr %36, align 8, !tbaa !18
  %.not9.i.i = icmp eq ptr %37, null
  br i1 %.not9.i.i, label %40, label %38

38:                                               ; preds = %35
  %39 = tail call dereferenceable_or_null(64) ptr @realloc(ptr noundef nonnull %37, i64 noundef 64) #23
  br label %Vec_IntGrow.exit.i

40:                                               ; preds = %35
  %41 = tail call noalias dereferenceable_or_null(64) ptr @malloc(i64 noundef 64) #24
  br label %Vec_IntGrow.exit.i

Vec_IntGrow.exit.i:                               ; preds = %40, %38
  %42 = phi ptr [ %39, %38 ], [ %41, %40 ]
  store ptr %42, ptr %36, align 8, !tbaa !18
  store i32 16, ptr %2, align 8, !tbaa !31
  br label %Vec_IntPush.exit

43:                                               ; preds = %33
  %44 = shl nuw nsw i32 %30, 1
  %45 = getelementptr inbounds nuw i8, ptr %2, i64 8
  %46 = load ptr, ptr %45, align 8, !tbaa !18
  %.not9.i9.i = icmp eq ptr %46, null
  %47 = zext nneg i32 %44 to i64
  %48 = shl nuw nsw i64 %47, 2
  br i1 %.not9.i9.i, label %51, label %49

49:                                               ; preds = %43
  %50 = tail call ptr @realloc(ptr noundef nonnull %46, i64 noundef %48) #23
  br label %53

51:                                               ; preds = %43
  %52 = tail call noalias ptr @malloc(i64 noundef %48) #24
  br label %53

53:                                               ; preds = %51, %49
  %54 = phi ptr [ %50, %49 ], [ %52, %51 ]
  store ptr %54, ptr %45, align 8, !tbaa !18
  store i32 %44, ptr %2, align 8, !tbaa !31
  br label %Vec_IntPush.exit

Vec_IntPush.exit:                                 ; preds = %.Vec_IntGrow.exit10_crit_edge.i, %Vec_IntGrow.exit.i, %53
  %55 = phi ptr [ %.pre.i, %.Vec_IntGrow.exit10_crit_edge.i ], [ %54, %53 ], [ %42, %Vec_IntGrow.exit.i ]
  %56 = load i32, ptr %29, align 4, !tbaa !15
  %57 = add nsw i32 %56, 1
  store i32 %57, ptr %29, align 4, !tbaa !15
  %58 = sext i32 %56 to i64
  %59 = getelementptr inbounds i32, ptr %55, i64 %58
  store i32 %1, ptr %59, align 4, !tbaa !19
  br label %60

60:                                               ; preds = %3, %Vec_IntPush.exit
  ret void
}